target datalayout = "e-m:e-p270:32:32-p271:32:32-p272:64:64-i64:64-i128:128-f80:128-n8:16:32:64-S128"
target triple = "x86_64-pc-linux-gnu"

%struct._priv_exr_context_t = type { i8, i8, i8, i8, i8, i8, i8, i8, %struct.exr_attr_string_t, %struct.exr_attr_string_t, ptr, ptr, ptr, ptr, ptr, ptr, ptr, ptr, i32, i32, i32, i32, i32, float, ptr, ptr, ptr, i64, ptr, ptr, i64, i32, i32, i32, i32, %struct._priv_exr_part_t, ptr, ptr, %struct.exr_attribute_list, %union.pthread_mutex_t, i8, i8, [2 x i8], i32 }
%struct.exr_attr_string_t = type { i32, i32, ptr }
%struct._priv_exr_part_t = type { i32, i32, %struct.exr_attribute_list, ptr, ptr, ptr, ptr, ptr, ptr, ptr, ptr, ptr, ptr, ptr, ptr, ptr, ptr, %struct.exr_attr_box2i_t, %struct.exr_attr_box2i_t, i32, i32, i32, float, i32, i32, ptr, ptr, ptr, ptr, i64, i16, i16, i32, i64, i64 }
%struct.exr_attr_box2i_t = type { %struct.exr_attr_v2i_t, %struct.exr_attr_v2i_t }
%struct.exr_attr_v2i_t = type { i32, i32 }
%struct.exr_attribute_list = type { i32, i32, ptr, ptr }
%union.pthread_mutex_t = type { %struct.__pthread_mutex_s }
%struct.__pthread_mutex_s = type { i32, i32, i32, i32, i32, i16, i16, %struct.__pthread_internal_list }
%struct.__pthread_internal_list = type { ptr, ptr }

@.str = private unnamed_addr constant [29 x i8] c"Part index (%d) out of range\00", align 1
@.str.13 = private unnamed_addr constant [29 x i8] c"Tile data missing or corrupt\00", align 1

; Function Attrs: inlinehint nounwind uwtable
define internal void @internal_exr_unlock(ptr noundef %0) #2 {
  %2 = alloca ptr, align 8
  %3 = alloca ptr, align 8
  store ptr %0, ptr %2, align 8, !tbaa !3
  call void @llvm.lifetime.start.p0(i64 8, ptr %3) #6
  %4 = load ptr, ptr %2, align 8, !tbaa !3
  %5 = ptrtoint ptr %4 to i64
  %6 = inttoptr i64 %5 to ptr
  store ptr %6, ptr %3, align 8, !tbaa !3
  %7 = load ptr, ptr %3, align 8, !tbaa !3
  %8 = getelementptr inbounds nuw %struct._priv_exr_context_t, ptr %7, i32 0, i32 39
  %9 = call i32 @pthread_mutex_unlock(ptr noundef %8) #6
  call void @llvm.lifetime.end.p0(i64 8, ptr %3) #6
  ret void
}

; Function Attrs: inlinehint nounwind uwtable
define internal void @internal_exr_lock(ptr noundef %0) #2 {
  %2 = alloca ptr, align 8
  %3 = alloca ptr, align 8
  store ptr %0, ptr %2, align 8, !tbaa !3
  call void @llvm.lifetime.start.p0(i64 8, ptr %3) #6
  %4 = load ptr, ptr %2, align 8, !tbaa !3
  %5 = ptrtoint ptr %4 to i64
  %6 = inttoptr i64 %5 to ptr
  store ptr %6, ptr %3, align 8, !tbaa !3
  %7 = load ptr, ptr %3, align 8, !tbaa !3
  %8 = getelementptr inbounds nuw %struct._priv_exr_context_t, ptr %7, i32 0, i32 39
  %9 = call i32 @pthread_mutex_lock(ptr noundef %8) #6
  call void @llvm.lifetime.end.p0(i64 8, ptr %3) #6
  ret void
}

; Function Attrs: nounwind uwtable
define i32 @exr_get_tile_levels(ptr noundef %0, i32 noundef %1, ptr noundef %2, ptr noundef %3) #0 {
  %5 = alloca i32, align 4
  %6 = alloca ptr, align 8
  %7 = alloca i32, align 4
  %8 = alloca ptr, align 8
  %9 = alloca ptr, align 8
  %10 = alloca ptr, align 8
  %11 = alloca i32, align 4
  store ptr %0, ptr %6, align 8, !tbaa !3
  store i32 %1, ptr %7, align 4, !tbaa !27
  store ptr %2, ptr %8, align 8, !tbaa !8
  store ptr %3, ptr %9, align 8, !tbaa !8
  call void @llvm.lifetime.start.p0(i64 8, ptr %10) #6
  %12 = load ptr, ptr %6, align 8, !tbaa !3
  %13 = icmp ne ptr %12, null
  br i1 %13, label %15, label %14

14:                                               ; preds = %4
  store i32 2, ptr %5, align 4
  store i32 1, ptr %11, align 4
  br label %145

15:                                               ; preds = %4
  %16 = load ptr, ptr %6, align 8, !tbaa !3
  %17 = getelementptr inbounds nuw %struct._priv_exr_context_t, ptr %16, i32 0, i32 0
  %18 = load i8, ptr %17, align 8, !tbaa !25
  %19 = zext i8 %18 to i32
  %20 = icmp eq i32 %19, 1
  br i1 %20, label %21, label %23

21:                                               ; preds = %15
  %22 = load ptr, ptr %6, align 8, !tbaa !3
  call void @internal_exr_lock(ptr noundef %22)
  br label %23

23:                                               ; preds = %21, %15
  %24 = load i32, ptr %7, align 4, !tbaa !27
  %25 = icmp slt i32 %24, 0
  br i1 %25, label %32, label %26

26:                                               ; preds = %23
  %27 = load i32, ptr %7, align 4, !tbaa !27
  %28 = load ptr, ptr %6, align 8, !tbaa !3
  %29 = getelementptr inbounds nuw %struct._priv_exr_context_t, ptr %28, i32 0, i32 34
  %30 = load i32, ptr %29, align 4, !tbaa !26
  %31 = icmp sge i32 %27, %30
  br i1 %31, label %32, label %47

32:                                               ; preds = %26, %23
  %33 = load ptr, ptr %6, align 8, !tbaa !3
  %34 = getelementptr inbounds nuw %struct._priv_exr_context_t, ptr %33, i32 0, i32 0
  %35 = load i8, ptr %34, align 8, !tbaa !25
  %36 = zext i8 %35 to i32
  %37 = icmp eq i32 %36, 1
  br i1 %37, label %38, label %40

38:                                               ; preds = %32
  %39 = load ptr, ptr %6, align 8, !tbaa !3
  call void @internal_exr_unlock(ptr noundef %39)
  br label %40

40:                                               ; preds = %38, %32
  %41 = load ptr, ptr %6, align 8, !tbaa !3
  %42 = getelementptr inbounds nuw %struct._priv_exr_context_t, ptr %41, i32 0, i32 14
  %43 = load ptr, ptr %42, align 8, !tbaa !29
  %44 = load ptr, ptr %6, align 8, !tbaa !3
  %45 = load i32, ptr %7, align 4, !tbaa !27
  %46 = call i32 (ptr, i32, ptr, ...) %43(ptr noundef %44, i32 noundef 4, ptr noundef @.str, i32 noundef %45)
  store i32 %46, ptr %5, align 4
  store i32 1, ptr %11, align 4
  br label %145

47:                                               ; preds = %26
  %48 = load ptr, ptr %6, align 8, !tbaa !3
  %49 = getelementptr inbounds nuw %struct._priv_exr_context_t, ptr %48, i32 0, i32 37
  %50 = load ptr, ptr %49, align 8, !tbaa !30
  %51 = load i32, ptr %7, align 4, !tbaa !27
  %52 = sext i32 %51 to i64
  %53 = getelementptr inbounds ptr, ptr %50, i64 %52
  %54 = load ptr, ptr %53, align 8, !tbaa !31
  store ptr %54, ptr %10, align 8, !tbaa !31
  %55 = load ptr, ptr %10, align 8, !tbaa !31
  %56 = getelementptr inbounds nuw %struct._priv_exr_part_t, ptr %55, i32 0, i32 1
  %57 = load i32, ptr %56, align 4, !tbaa !32
  %58 = icmp eq i32 %57, 1
  br i1 %58, label %64, label %59

59:                                               ; preds = %47
  %60 = load ptr, ptr %10, align 8, !tbaa !31
  %61 = getelementptr inbounds nuw %struct._priv_exr_part_t, ptr %60, i32 0, i32 1
  %62 = load i32, ptr %61, align 4, !tbaa !32
  %63 = icmp eq i32 %62, 3
  br i1 %63, label %64, label %130

64:                                               ; preds = %59, %47
  %65 = load ptr, ptr %10, align 8, !tbaa !31
  %66 = getelementptr inbounds nuw %struct._priv_exr_part_t, ptr %65, i32 0, i32 11
  %67 = load ptr, ptr %66, align 8, !tbaa !45
  %68 = icmp ne ptr %67, null
  br i1 %68, label %69, label %89

69:                                               ; preds = %64
  %70 = load ptr, ptr %10, align 8, !tbaa !31
  %71 = getelementptr inbounds nuw %struct._priv_exr_part_t, ptr %70, i32 0, i32 23
  %72 = load i32, ptr %71, align 8, !tbaa !46
  %73 = icmp sle i32 %72, 0
  br i1 %73, label %89, label %74

74:                                               ; preds = %69
  %75 = load ptr, ptr %10, align 8, !tbaa !31
  %76 = getelementptr inbounds nuw %struct._priv_exr_part_t, ptr %75, i32 0, i32 24
  %77 = load i32, ptr %76, align 4, !tbaa !47
  %78 = icmp sle i32 %77, 0
  br i1 %78, label %89, label %79

79:                                               ; preds = %74
  %80 = load ptr, ptr %10, align 8, !tbaa !31
  %81 = getelementptr inbounds nuw %struct._priv_exr_part_t, ptr %80, i32 0, i32 25
  %82 = load ptr, ptr %81, align 8, !tbaa !48
  %83 = icmp ne ptr %82, null
  br i1 %83, label %84, label %89

84:                                               ; preds = %79
  %85 = load ptr, ptr %10, align 8, !tbaa !31
  %86 = getelementptr inbounds nuw %struct._priv_exr_part_t, ptr %85, i32 0, i32 26
  %87 = load ptr, ptr %86, align 8, !tbaa !49
  %88 = icmp ne ptr %87, null
  br i1 %88, label %104, label %89

89:                                               ; preds = %84, %79, %74, %69, %64
  %90 = load ptr, ptr %6, align 8, !tbaa !3
  %91 = getelementptr inbounds nuw %struct._priv_exr_context_t, ptr %90, i32 0, i32 0
  %92 = load i8, ptr %91, align 8, !tbaa !25
  %93 = zext i8 %92 to i32
  %94 = icmp eq i32 %93, 1
  br i1 %94, label %95, label %97

95:                                               ; preds = %89
  %96 = load ptr, ptr %6, align 8, !tbaa !3
  call void @internal_exr_unlock(ptr noundef %96)
  br label %98

97:                                               ; preds = %89
  br label %98

98:                                               ; preds = %97, %95
  %99 = load ptr, ptr %6, align 8, !tbaa !3
  %100 = getelementptr inbounds nuw %struct._priv_exr_context_t, ptr %99, i32 0, i32 14
  %101 = load ptr, ptr %100, align 8, !tbaa !29
  %102 = load ptr, ptr %6, align 8, !tbaa !3
  %103 = call i32 (ptr, i32, ptr, ...) %101(ptr noundef %102, i32 noundef 13, ptr noundef @.str.13)
  store i32 %103, ptr %5, align 4
  store i32 1, ptr %11, align 4
  br label %145

104:                                              ; preds = %84
  %105 = load ptr, ptr %8, align 8, !tbaa !8
  %106 = icmp ne ptr %105, null
  br i1 %106, label %107, label %112

107:                                              ; preds = %104
  %108 = load ptr, ptr %10, align 8, !tbaa !31
  %109 = getelementptr inbounds nuw %struct._priv_exr_part_t, ptr %108, i32 0, i32 23
  %110 = load i32, ptr %109, align 8, !tbaa !46
  %111 = load ptr, ptr %8, align 8, !tbaa !8
  store i32 %110, ptr %111, align 4, !tbaa !27
  br label %112

112:                                              ; preds = %107, %104
  %113 = load ptr, ptr %9, align 8, !tbaa !8
  %114 = icmp ne ptr %113, null
  br i1 %114, label %115, label %120

115:                                              ; preds = %112
  %116 = load ptr, ptr %10, align 8, !tbaa !31
  %117 = getelementptr inbounds nuw %struct._priv_exr_part_t, ptr %116, i32 0, i32 24
  %118 = load i32, ptr %117, align 4, !tbaa !47
  %119 = load ptr, ptr %9, align 8, !tbaa !8
  store i32 %118, ptr %119, align 4, !tbaa !27
  br label %120

120:                                              ; preds = %115, %112
  %121 = load ptr, ptr %6, align 8, !tbaa !3
  %122 = getelementptr inbounds nuw %struct._priv_exr_context_t, ptr %121, i32 0, i32 0
  %123 = load i8, ptr %122, align 8, !tbaa !25
  %124 = zext i8 %123 to i32
  %125 = icmp eq i32 %124, 1
  br i1 %125, label %126, label %128

126:                                              ; preds = %120
  %127 = load ptr, ptr %6, align 8, !tbaa !3
  call void @internal_exr_unlock(ptr noundef %127)
  br label %129

128:                                              ; preds = %120
  br label %129

129:                                              ; preds = %128, %126
  store i32 0, ptr %5, align 4
  store i32 1, ptr %11, align 4
  br label %145

130:                                              ; preds = %59
  %131 = load ptr, ptr %6, align 8, !tbaa !3
  %132 = getelementptr inbounds nuw %struct._priv_exr_context_t, ptr %131, i32 0, i32 0
  %133 = load i8, ptr %132, align 8, !tbaa !25
  %134 = zext i8 %133 to i32
  %135 = icmp eq i32 %134, 1
  br i1 %135, label %136, label %138

136:                                              ; preds = %130
  %137 = load ptr, ptr %6, align 8, !tbaa !3
  call void @internal_exr_unlock(ptr noundef %137)
  br label %139

138:                                              ; preds = %130
  br label %139

139:                                              ; preds = %138, %136
  %140 = load ptr, ptr %6, align 8, !tbaa !3
  %141 = getelementptr inbounds nuw %struct._priv_exr_context_t, ptr %140, i32 0, i32 12
  %142 = load ptr, ptr %141, align 8, !tbaa !10
  %143 = load ptr, ptr %6, align 8, !tbaa !3
  %144 = call i32 %142(ptr noundef %143, i32 noundef 19)
  store i32 %144, ptr %5, align 4
  store i32 1, ptr %11, align 4
  br label %145

145:                                              ; preds = %139, %129, %98, %40, %14
  call void @llvm.lifetime.end.p0(i64 8, ptr %10) #6
  %146 = load i32, ptr %5, align 4
  ret i32 %146
}