; Function Attrs: nounwind uwtable
define i32 @exr_get_tile_levels(ptr noundef %0, i32 noundef %1, ptr noundef writeonly %2, ptr noundef writeonly %3) local_unnamed_addr #0 {
  %.not = icmp eq ptr %0, null
  br i1 %.not, label %82, label %5

5:                                                ; preds = %4
  %6 = load i8, ptr %0, align 8, !tbaa !22
  %7 = icmp eq i8 %6, 1
  br i1 %7, label %8, label %11

8:                                                ; preds = %5
  %9 = getelementptr inbounds nuw i8, ptr %0, i64 504
  %10 = tail call i32 @pthread_mutex_lock(ptr noundef nonnull %9) #6
  br label %11

11:                                               ; preds = %8, %5
  %12 = icmp slt i32 %1, 0
  br i1 %12, label %16, label %13

13:                                               ; preds = %11
  %14 = getelementptr inbounds nuw i8, ptr %0, i64 196
  %15 = load i32, ptr %14, align 4, !tbaa !23
  %.not42 = icmp slt i32 %1, %15
  br i1 %.not42, label %26, label %16

16:                                               ; preds = %13, %11
  %17 = load i8, ptr %0, align 8, !tbaa !22
  %18 = icmp eq i8 %17, 1
  br i1 %18, label %19, label %22

19:                                               ; preds = %16
  %20 = getelementptr inbounds nuw i8, ptr %0, i64 504
  %21 = tail call i32 @pthread_mutex_unlock(ptr noundef nonnull %20) #6
  br label %22

22:                                               ; preds = %19, %16
  %23 = getelementptr inbounds nuw i8, ptr %0, i64 72
  %24 = load ptr, ptr %23, align 8, !tbaa !25
  %25 = tail call i32 (ptr, i32, ptr, ...) %24(ptr noundef nonnull %0, i32 noundef 4, ptr noundef nonnull @.str, i32 noundef %1) #6
  br label %82

26:                                               ; preds = %13
  %27 = getelementptr inbounds nuw i8, ptr %0, i64 472
  %28 = load ptr, ptr %27, align 8, !tbaa !26
  %29 = zext nneg i32 %1 to i64
  %30 = getelementptr inbounds nuw ptr, ptr %28, i64 %29
  %31 = load ptr, ptr %30, align 8, !tbaa !27
  %32 = getelementptr inbounds nuw i8, ptr %31, i64 4
  %33 = load i32, ptr %32, align 4, !tbaa !28
  switch i32 %33, label %72 [
    i32 1, label %34
    i32 3, label %34
  ]

34:                                               ; preds = %26, %26
  %35 = getelementptr inbounds nuw i8, ptr %31, i64 96
  %36 = load ptr, ptr %35, align 8, !tbaa !39
  %.not43 = icmp eq ptr %36, null
  br i1 %.not43, label %51, label %37

37:                                               ; preds = %34
  %38 = getelementptr inbounds nuw i8, ptr %31, i64 192
  %39 = load i32, ptr %38, align 8, !tbaa !40
  %40 = icmp slt i32 %39, 1
  br i1 %40, label %51, label %41

41:                                               ; preds = %37
  %42 = getelementptr inbounds nuw i8, ptr %31, i64 196
  %43 = load i32, ptr %42, align 4, !tbaa !41
  %44 = icmp slt i32 %43, 1
  br i1 %44, label %51, label %45

45:                                               ; preds = %41
  %46 = getelementptr inbounds nuw i8, ptr %31, i64 200
  %47 = load ptr, ptr %46, align 8, !tbaa !42
  %.not44 = icmp eq ptr %47, null
  br i1 %.not44, label %51, label %48

48:                                               ; preds = %45
  %49 = getelementptr inbounds nuw i8, ptr %31, i64 208
  %50 = load ptr, ptr %49, align 8, !tbaa !43
  %.not45 = icmp eq ptr %50, null
  br i1 %.not45, label %51, label %61

51:                                               ; preds = %48, %45, %41, %37, %34
  %52 = load i8, ptr %0, align 8, !tbaa !22
  %53 = icmp eq i8 %52, 1
  br i1 %53, label %54, label %57

54:                                               ; preds = %51
  %55 = getelementptr inbounds nuw i8, ptr %0, i64 504
  %56 = tail call i32 @pthread_mutex_unlock(ptr noundef nonnull %55) #6
  br label %57

57:                                               ; preds = %51, %54
  %58 = getelementptr inbounds nuw i8, ptr %0, i64 72
  %59 = load ptr, ptr %58, align 8, !tbaa !25
  %60 = tail call i32 (ptr, i32, ptr, ...) %59(ptr noundef nonnull %0, i32 noundef 13, ptr noundef nonnull @.str.13) #6
  br label %82

61:                                               ; preds = %48
  %.not46 = icmp eq ptr %2, null
  br i1 %.not46, label %63, label %62

62:                                               ; preds = %61
  store i32 %39, ptr %2, align 4, !tbaa !24
  br label %63

63:                                               ; preds = %62, %61
  %.not47 = icmp eq ptr %3, null
  br i1 %.not47, label %66, label %64

64:                                               ; preds = %63
  %65 = load i32, ptr %42, align 4, !tbaa !41
  store i32 %65, ptr %3, align 4, !tbaa !24
  br label %66

66:                                               ; preds = %64, %63
  %67 = load i8, ptr %0, align 8, !tbaa !22
  %68 = icmp eq i8 %67, 1
  br i1 %68, label %69, label %82

69:                                               ; preds = %66
  %70 = getelementptr inbounds nuw i8, ptr %0, i64 504
  %71 = tail call i32 @pthread_mutex_unlock(ptr noundef nonnull %70) #6
  br label %82

72:                                               ; preds = %26
  %73 = load i8, ptr %0, align 8, !tbaa !22
  %74 = icmp eq i8 %73, 1
  br i1 %74, label %75, label %78

75:                                               ; preds = %72
  %76 = getelementptr inbounds nuw i8, ptr %0, i64 504
  %77 = tail call i32 @pthread_mutex_unlock(ptr noundef nonnull %76) #6
  br label %78

78:                                               ; preds = %72, %75
  %79 = getelementptr inbounds nuw i8, ptr %0, i64 56
  %80 = load ptr, ptr %79, align 8, !tbaa !3
  %81 = tail call i32 %80(ptr noundef nonnull %0, i32 noundef 19) #6
  br label %82

82:                                               ; preds = %69, %66, %4, %78, %57, %22
  %.0 = phi i32 [ %25, %22 ], [ %60, %57 ], [ %81, %78 ], [ 2, %4 ], [ 0, %66 ], [ 0, %69 ]
  ret i32 %.0
}